target datalayout = "e-m:e-p270:32:32-p271:32:32-p272:64:64-i64:64-i128:128-f80:128-n8:16:32:64-S128"
target triple = "x86_64-pc-linux-gnu"

%struct.timeval = type { i64, i64 }
%struct.fd_set = type { [16 x i64] }

@.str = private unnamed_addr constant [38 x i8] c"Connection closed while sending data\0A\00", align 1
@.str.1 = private unnamed_addr constant [17 x i8] c"send failed: %s\0A\00", align 1
@.str.2 = private unnamed_addr constant [27 x i8] c"Failed to stream to clamd\0A\00", align 1

; Function Attrs: nounwind uwtable
define dso_local i32 @nc_send(i32 noundef %0, ptr noundef %1, i64 noundef %2) #0 {
  %4 = alloca i32, align 4
  %5 = alloca i32, align 4
  %6 = alloca ptr, align 8
  %7 = alloca i64, align 8
  %8 = alloca ptr, align 8
  %9 = alloca i32, align 4
  %10 = alloca i64, align 8
  %11 = alloca %struct.timeval, align 8
  %12 = alloca [256 x i8], align 16
  %13 = alloca %struct.fd_set, align 8
  %14 = alloca i32, align 4
  %15 = alloca ptr, align 8
  %16 = alloca i64, align 8
  store i32 %0, ptr %5, align 4
  store ptr %1, ptr %6, align 8
  store i64 %2, ptr %7, align 8
  %17 = load ptr, ptr %6, align 8
  store ptr %17, ptr %8, align 8
  br label %18

18:                                               ; preds = %121, %38, %3
  %19 = load i64, ptr %7, align 8
  %20 = icmp ne i64 %19, 0
  br i1 %20, label %21, label %122

21:                                               ; preds = %18
  %22 = load i32, ptr %5, align 4
  %23 = load ptr, ptr %8, align 8
  %24 = load i64, ptr %7, align 8
  %25 = call i64 @send(i32 noundef %22, ptr noundef %23, i64 noundef %24, i32 noundef 0)
  %26 = trunc i64 %25 to i32
  store i32 %26, ptr %9, align 4
  %27 = call i64 @time(ptr noundef null) #8
  %28 = add nsw i64 %27, 30
  store i64 %28, ptr %10, align 8
  %29 = load i32, ptr %9, align 4
  %30 = icmp ne i32 %29, 0
  br i1 %30, label %35, label %31

31:                                               ; preds = %21
  %32 = call i32 (i32, ptr, ...) @logg(i32 noundef 5, ptr noundef @.str)
  %33 = load i32, ptr %5, align 4
  %34 = call i32 @close(i32 noundef %33)
  store i32 1, ptr %4, align 4
  br label %123

35:                                               ; preds = %21
  %36 = load i32, ptr %9, align 4
  %37 = icmp ne i32 %36, -1
  br i1 %37, label %38, label %47

38:                                               ; preds = %35
  %39 = load i32, ptr %9, align 4
  %40 = sext i32 %39 to i64
  %41 = load i64, ptr %7, align 8
  %42 = sub i64 %41, %40
  store i64 %42, ptr %7, align 8
  %43 = load i32, ptr %9, align 4
  %44 = load ptr, ptr %8, align 8
  %45 = sext i32 %43 to i64
  %46 = getelementptr inbounds i8, ptr %44, i64 %45
  store ptr %46, ptr %8, align 8
  br label %18

47:                                               ; preds = %35
  %48 = call ptr @__errno_location() #9
  %49 = load i32, ptr %48, align 4
  %50 = icmp ne i32 %49, 11
  br i1 %50, label %51, label %63

51:                                               ; preds = %47
  %52 = call ptr @__errno_location() #9
  %53 = load i32, ptr %52, align 4
  %54 = icmp ne i32 %53, 11
  br i1 %54, label %55, label %63

55:                                               ; preds = %51
  %56 = call ptr @__errno_location() #9
  %57 = load i32, ptr %56, align 4
  %58 = getelementptr inbounds [256 x i8], ptr %12, i64 0, i64 0
  %59 = call ptr @cli_strerror(i32 noundef %57, ptr noundef %58, i64 noundef 256)
  %60 = call i32 (i32, ptr, ...) @logg(i32 noundef 5, ptr noundef @.str.1, ptr noundef %59)
  %61 = load i32, ptr %5, align 4
  %62 = call i32 @close(i32 noundef %61)
  store i32 1, ptr %4, align 4
  br label %123

63:                                               ; preds = %51, %47
  %64 = getelementptr inbounds %struct.timeval, ptr %11, i32 0, i32 0
  store i64 30, ptr %64, align 8
  %65 = getelementptr inbounds %struct.timeval, ptr %11, i32 0, i32 1
  store i64 0, ptr %65, align 8
  br label %66

66:                                               ; preds = %110, %63
  br label %67

67:                                               ; preds = %66
  store ptr %13, ptr %15, align 8
  store i32 0, ptr %14, align 4
  br label %68

68:                                               ; preds = %78, %67
  %69 = load i32, ptr %14, align 4
  %70 = zext i32 %69 to i64
  %71 = icmp ult i64 %70, 16
  br i1 %71, label %72, label %81

72:                                               ; preds = %68
  %73 = load ptr, ptr %15, align 8
  %74 = getelementptr inbounds %struct.fd_set, ptr %73, i32 0, i32 0
  %75 = load i32, ptr %14, align 4
  %76 = zext i32 %75 to i64
  %77 = getelementptr inbounds [16 x i64], ptr %74, i64 0, i64 %76
  store i64 0, ptr %77, align 8
  br label %78

78:                                               ; preds = %72
  %79 = load i32, ptr %14, align 4
  %80 = add i32 %79, 1
  store i32 %80, ptr %14, align 4
  br label %68

81:                                               ; preds = %68
  br label %82

82:                                               ; preds = %81
  %83 = load i32, ptr %5, align 4
  %84 = srem i32 %83, 64
  %85 = zext i32 %84 to i64
  %86 = shl i64 1, %85
  %87 = getelementptr inbounds %struct.fd_set, ptr %13, i32 0, i32 0
  %88 = load i32, ptr %5, align 4
  %89 = sdiv i32 %88, 64
  %90 = sext i32 %89 to i64
  %91 = getelementptr inbounds [16 x i64], ptr %87, i64 0, i64 %90
  %92 = load i64, ptr %91, align 8
  %93 = or i64 %92, %86
  store i64 %93, ptr %91, align 8
  %94 = load i32, ptr %5, align 4
  %95 = add nsw i32 %94, 1
  %96 = call i32 @select(i32 noundef %95, ptr noundef null, ptr noundef %13, ptr noundef null, ptr noundef %11)
  store i32 %96, ptr %9, align 4
  %97 = load i32, ptr %9, align 4
  %98 = icmp slt i32 %97, 1
  br i1 %98, label %99, label %120

99:                                               ; preds = %82
  %100 = load i32, ptr %9, align 4
  %101 = icmp eq i32 %100, -1
  br i1 %101, label %102, label %116

102:                                              ; preds = %99
  %103 = call ptr @__errno_location() #9
  %104 = load i32, ptr %103, align 4
  %105 = icmp eq i32 %104, 4
  br i1 %105, label %106, label %116

106:                                              ; preds = %102
  %107 = call i64 @time(ptr noundef null) #8
  store i64 %107, ptr %16, align 8
  %108 = load i64, ptr %10, align 8
  %109 = icmp slt i64 %107, %108
  br i1 %109, label %110, label %116

110:                                              ; preds = %106
  %111 = load i64, ptr %10, align 8
  %112 = load i64, ptr %16, align 8
  %113 = sub nsw i64 %111, %112
  %114 = getelementptr inbounds %struct.timeval, ptr %11, i32 0, i32 0
  store i64 %113, ptr %114, align 8
  %115 = getelementptr inbounds %struct.timeval, ptr %11, i32 0, i32 1
  store i64 0, ptr %115, align 8
  br label %66

116:                                              ; preds = %106, %102, %99
  %117 = call i32 (i32, ptr, ...) @logg(i32 noundef 5, ptr noundef @.str.2)
  %118 = load i32, ptr %5, align 4
  %119 = call i32 @close(i32 noundef %118)
  store i32 1, ptr %4, align 4
  br label %123

120:                                              ; preds = %82
  br label %121

121:                                              ; preds = %120
  br label %18

122:                                              ; preds = %18
  store i32 0, ptr %4, align 4
  br label %123

123:                                              ; preds = %122, %116, %55, %31
  %124 = load i32, ptr %4, align 4
  ret i32 %124
}