; Function Attrs: nounwind uwtable
define dso_local noundef i32 @nc_send(i32 noundef %0, ptr noundef %1, i64 noundef %2) local_unnamed_addr #0 {
  %4 = alloca %struct.timeval, align 8
  %5 = alloca [256 x i8], align 16
  %6 = alloca %struct.fd_set, align 8
  %.not75 = icmp eq i64 %2, 0
  br i1 %.not75, label %.loopexit38, label %.lr.ph.lr.ph

.lr.ph.lr.ph:                                     ; preds = %3
  %7 = getelementptr inbounds i8, ptr %4, i64 8
  %8 = srem i32 %0, 64
  %9 = zext nneg i32 %8 to i64
  %10 = shl nuw i64 1, %9
  %11 = sdiv i32 %0, 64
  %12 = sext i32 %11 to i64
  %13 = getelementptr inbounds [16 x i64], ptr %6, i64 0, i64 %12
  %14 = add nsw i32 %0, 1
  br label %.lr.ph.split.preheader

.lr.ph.split.preheader:                           ; preds = %.outer, %.lr.ph.lr.ph
  %.026.ph77 = phi i64 [ %2, %.lr.ph.lr.ph ], [ %21, %.outer ]
  %.028.ph76 = phi ptr [ %1, %.lr.ph.lr.ph ], [ %22, %.outer ]
  br label %.lr.ph.split

.lr.ph.split:                                     ; preds = %.lr.ph.split.backedge, %.lr.ph.split.preheader
  %15 = call i64 @send(i32 noundef %0, ptr noundef %.028.ph76, i64 noundef %.026.ph77, i32 noundef 0) #13
  %16 = trunc i64 %15 to i32
  %17 = call i64 @time(ptr noundef null) #13
  %18 = add nsw i64 %17, 30
  switch i32 %16, label %.outer [
    i32 0, label %.split46.us
    i32 -1, label %23
  ]

.split46.us:                                      ; preds = %.lr.ph.split
  %19 = call i32 (i32, ptr, ...) @logg(i32 noundef 5, ptr noundef nonnull @.str) #13
  br label %.loopexit38.sink.split

.outer:                                           ; preds = %.lr.ph.split
  %sext = shl i64 %15, 32
  %20 = ashr exact i64 %sext, 32
  %21 = sub i64 %.026.ph77, %20
  %22 = getelementptr inbounds i8, ptr %.028.ph76, i64 %20
  %.not = icmp eq i64 %21, 0
  br i1 %.not, label %.loopexit38, label %.lr.ph.split.preheader

23:                                               ; preds = %.lr.ph.split
  %24 = tail call ptr @__errno_location() #14
  %25 = load i32, ptr %24, align 4
  %.not37 = icmp eq i32 %25, 11
  br i1 %.not37, label %.preheader, label %.split48.us

.preheader:                                       ; preds = %23
  store i64 30, ptr %4, align 8
  store i64 0, ptr %7, align 8
  call void @llvm.memset.p0.i64(ptr noundef nonnull align 8 dereferenceable(128) %6, i8 0, i64 128, i1 false)
  %26 = load i64, ptr %13, align 8
  %27 = or i64 %26, %10
  store i64 %27, ptr %13, align 8
  %28 = call i32 @select(i32 noundef %14, ptr noundef null, ptr noundef nonnull %6, ptr noundef null, ptr noundef nonnull %4) #13
  %29 = icmp slt i32 %28, 1
  br i1 %29, label %.lr.ph, label %.lr.ph.split.backedge

.lr.ph.split.backedge:                            ; preds = %32, %.preheader
  br label %.lr.ph.split

.split48.us:                                      ; preds = %23
  %30 = call ptr @cli_strerror(i32 noundef %25, ptr noundef nonnull %5, i64 noundef 256) #13
  %31 = call i32 (i32, ptr, ...) @logg(i32 noundef 5, ptr noundef nonnull @.str.1, ptr noundef %30) #13
  br label %.loopexit38.sink.split

32:                                               ; preds = %43
  %33 = sub nsw i64 %18, %44
  store i64 %33, ptr %4, align 8
  store i64 0, ptr %7, align 8
  call void @llvm.memset.p0.i64(ptr noundef nonnull align 8 dereferenceable(128) %6, i8 0, i64 128, i1 false)
  %34 = load i64, ptr %13, align 8
  %35 = or i64 %34, %10
  store i64 %35, ptr %13, align 8
  %36 = call i32 @select(i32 noundef %14, ptr noundef null, ptr noundef nonnull %6, ptr noundef null, ptr noundef nonnull %4) #13
  %37 = icmp slt i32 %36, 1
  br i1 %37, label %.lr.ph, label %.lr.ph.split.backedge

.lr.ph:                                           ; preds = %.preheader, %32
  %38 = phi i32 [ %36, %32 ], [ %28, %.preheader ]
  %39 = icmp eq i32 %38, -1
  br i1 %39, label %40, label %.split51.us

40:                                               ; preds = %.lr.ph
  %41 = load i32, ptr %24, align 4
  %42 = icmp eq i32 %41, 4
  br i1 %42, label %43, label %.split51.us

43:                                               ; preds = %40
  %44 = call i64 @time(ptr noundef null) #13
  %45 = icmp slt i64 %44, %18
  br i1 %45, label %32, label %.split51.us

.split51.us:                                      ; preds = %.lr.ph, %40, %43
  %46 = call i32 (i32, ptr, ...) @logg(i32 noundef 5, ptr noundef nonnull @.str.2) #13
  br label %.loopexit38.sink.split

.loopexit38.sink.split:                           ; preds = %.split46.us, %.split48.us, %.split51.us
  %47 = call i32 @close(i32 noundef %0) #13
  br label %.loopexit38

.loopexit38:                                      ; preds = %.outer, %.loopexit38.sink.split, %3
  %.0 = phi i32 [ 0, %3 ], [ 1, %.loopexit38.sink.split ], [ 0, %.outer ]
  ret i32 %.0
}